target datalayout = "e-m:e-p270:32:32-p271:32:32-p272:64:64-i64:64-i128:128-f80:128-n8:16:32:64-S128"
target triple = "x86_64-pc-linux-gnu"

%struct.t_interaction_function = type { ptr, ptr, i32, i32, i32, i32 }
%struct.ReverseTopOptions = type { i8, i8, i8 }

@interaction_function = external global [95 x %struct.t_interaction_function], align 16

; Function Attrs: mustprogress nounwind uwtable
define noundef zeroext i1 @_Z14dd_check_ftypeiRK17ReverseTopOptions(i32 noundef %0, ptr noundef nonnull align 1 dereferenceable(3) %1) #3 {
  %3 = alloca i32, align 4
  %4 = alloca ptr, align 8
  store i32 %0, ptr %3, align 4, !tbaa !4
  store ptr %1, ptr %4, align 8, !tbaa !13
  %5 = load i32, ptr %3, align 4, !tbaa !4
  %6 = sext i32 %5 to i64
  %7 = getelementptr inbounds [95 x %struct.t_interaction_function], ptr @interaction_function, i64 0, i64 %6
  %8 = getelementptr inbounds nuw %struct.t_interaction_function, ptr %7, i32 0, i32 5
  %9 = load i32, ptr %8, align 4, !tbaa !8
  %10 = and i32 %9, 1
  %11 = icmp ne i32 %10, 0
  br i1 %11, label %12, label %34

12:                                               ; preds = %2
  %13 = load i32, ptr %3, align 4, !tbaa !4
  %14 = sext i32 %13 to i64
  %15 = getelementptr inbounds [95 x %struct.t_interaction_function], ptr @interaction_function, i64 0, i64 %14
  %16 = getelementptr inbounds nuw %struct.t_interaction_function, ptr %15, i32 0, i32 5
  %17 = load i32, ptr %16, align 4, !tbaa !8
  %18 = and i32 %17, 2
  %19 = icmp eq i32 %18, 0
  br i1 %19, label %20, label %34

20:                                               ; preds = %12
  %21 = load ptr, ptr %4, align 8, !tbaa !13
  %22 = getelementptr inbounds nuw %struct.ReverseTopOptions, ptr %21, i32 0, i32 0
  %23 = load i8, ptr %22, align 1, !tbaa !15, !range !19, !noundef !20
  %24 = trunc i8 %23 to i1
  %25 = icmp eq i1 %24, true
  br i1 %25, label %55, label %26

26:                                               ; preds = %20
  %27 = load i32, ptr %3, align 4, !tbaa !4
  %28 = sext i32 %27 to i64
  %29 = getelementptr inbounds [95 x %struct.t_interaction_function], ptr @interaction_function, i64 0, i64 %28
  %30 = getelementptr inbounds nuw %struct.t_interaction_function, ptr %29, i32 0, i32 5
  %31 = load i32, ptr %30, align 4, !tbaa !8
  %32 = and i32 %31, 512
  %33 = icmp eq i32 %32, 0
  br i1 %33, label %55, label %34

34:                                               ; preds = %26, %12, %2
  %35 = load ptr, ptr %4, align 8, !tbaa !13
  %36 = getelementptr inbounds nuw %struct.ReverseTopOptions, ptr %35, i32 0, i32 1
  %37 = load i8, ptr %36, align 1, !tbaa !21, !range !19, !noundef !20
  %38 = trunc i8 %37 to i1
  br i1 %38, label %39, label %45

39:                                               ; preds = %34
  %40 = load i32, ptr %3, align 4, !tbaa !4
  %41 = icmp eq i32 %40, 62
  br i1 %41, label %55, label %42

42:                                               ; preds = %39
  %43 = load i32, ptr %3, align 4, !tbaa !4
  %44 = icmp eq i32 %43, 63
  br i1 %44, label %55, label %45

45:                                               ; preds = %42, %34
  %46 = load ptr, ptr %4, align 8, !tbaa !13
  %47 = getelementptr inbounds nuw %struct.ReverseTopOptions, ptr %46, i32 0, i32 2
  %48 = load i8, ptr %47, align 1, !tbaa !22, !range !19, !noundef !20
  %49 = trunc i8 %48 to i1
  br i1 %49, label %50, label %53

50:                                               ; preds = %45
  %51 = load i32, ptr %3, align 4, !tbaa !4
  %52 = icmp eq i32 %51, 64
  br label %53

53:                                               ; preds = %50, %45
  %54 = phi i1 [ false, %45 ], [ %52, %50 ]
  br label %55

55:                                               ; preds = %53, %42, %39, %26, %20
  %56 = phi i1 [ true, %42 ], [ true, %39 ], [ true, %26 ], [ true, %20 ], [ %54, %53 ]
  ret i1 %56
}