; Function Attrs: mustprogress nofree norecurse nosync nounwind willreturn memory(read, inaccessiblemem: none) uwtable
define noundef zeroext i1 @_Z14dd_check_ftypeiRK17ReverseTopOptions(i32 noundef %0, ptr noundef nonnull readonly align 1 captures(none) dereferenceable(3) %1) local_unnamed_addr #2 {
  %3 = sext i32 %0 to i64
  %4 = getelementptr inbounds [95 x %struct.t_interaction_function], ptr @interaction_function, i64 0, i64 %3, i32 5
  %5 = load i32, ptr %4, align 4, !tbaa !11
  %6 = and i32 %5, 3
  %or.cond10 = icmp eq i32 %6, 1
  br i1 %or.cond10, label %7, label %12

7:                                                ; preds = %2
  %8 = load i8, ptr %1, align 1, !tbaa !12, !range !16, !noundef !17
  %9 = trunc nuw i8 %8 to i1
  %10 = and i32 %5, 512
  %11 = icmp eq i32 %10, 0
  %or.cond12 = or i1 %11, %9
  br i1 %or.cond12, label %23, label %12

12:                                               ; preds = %7, %2
  %13 = getelementptr inbounds nuw i8, ptr %1, i64 1
  %14 = load i8, ptr %13, align 1, !tbaa !18, !range !16, !noundef !17
  %15 = trunc nuw i8 %14 to i1
  %16 = and i32 %0, -2
  %or.cond = icmp eq i32 %16, 62
  %or.cond13 = and i1 %or.cond, %15
  br i1 %or.cond13, label %23, label %17

17:                                               ; preds = %12
  %18 = getelementptr inbounds nuw i8, ptr %1, i64 2
  %19 = load i8, ptr %18, align 1, !tbaa !19, !range !16, !noundef !17
  %20 = trunc nuw i8 %19 to i1
  %21 = icmp eq i32 %0, 64
  %22 = and i1 %21, %20
  br label %23

23:                                               ; preds = %12, %17, %7
  %24 = phi i1 [ true, %7 ], [ %22, %17 ], [ true, %12 ]
  ret i1 %24
}